target datalayout = "e-m:e-p270:32:32-p271:32:32-p272:64:64-i64:64-i128:128-f80:128-n8:16:32:64-S128"
target triple = "x86_64-pc-linux-gnu"

%class.GraphAlg = type { ptr, ptr }
%"class.V3List<V3GraphVertex, &V3GraphVertex::links>::SimpleItertatorImpl" = type { ptr }
%class.GraphAlgRank = type { %class.GraphAlg }
%class.V3Graph = type { ptr, %class.V3List }
%class.V3List = type { ptr, ptr }
%class.V3ListLinks = type { ptr, ptr }
%class.V3GraphVertex = type { ptr, %class.V3ListLinks, %class.V3List.0, %class.V3List.1, double, i32, i32, %union.anon }
%class.V3List.0 = type { ptr, ptr }
%class.V3List.1 = type { ptr, ptr }
%union.anon = type { ptr }

; Function Attrs: mustprogress nounwind uwtable
define linkonce_odr dso_local noundef i32 @_ZNK13V3GraphVertex4userEv(ptr noundef nonnull align 8 dereferenceable(80) %0) #5 comdat align 2 {
  %2 = alloca ptr, align 8
  store ptr %0, ptr %2, align 8
  %3 = load ptr, ptr %2, align 8
  %4 = getelementptr inbounds %class.V3GraphVertex, ptr %3, i32 0, i32 7
  %5 = load i32, ptr %4, align 8
  ret i32 %5
}

; Function Attrs: mustprogress nounwind uwtable
define linkonce_odr dso_local void @_ZN13V3GraphVertex4userEj(ptr noundef nonnull align 8 dereferenceable(80) %0, i32 noundef %1) #5 comdat align 2 {
  %3 = alloca ptr, align 8
  %4 = alloca i32, align 4
  store ptr %0, ptr %3, align 8
  store i32 %1, ptr %4, align 4
  %5 = load ptr, ptr %3, align 8
  %6 = load i32, ptr %4, align 4
  %7 = getelementptr inbounds %class.V3GraphVertex, ptr %5, i32 0, i32 7
  store i32 %6, ptr %7, align 8
  ret void
}

; Function Attrs: mustprogress nounwind uwtable
define linkonce_odr dso_local void @_ZN13V3GraphVertex4rankEj(ptr noundef nonnull align 8 dereferenceable(80) %0, i32 noundef %1) #5 comdat align 2 {
  %3 = alloca ptr, align 8
  %4 = alloca i32, align 4
  store ptr %0, ptr %3, align 8
  store i32 %1, ptr %4, align 4
  %5 = load ptr, ptr %3, align 8
  %6 = load i32, ptr %4, align 4
  %7 = getelementptr inbounds %class.V3GraphVertex, ptr %5, i32 0, i32 6
  store i32 %6, ptr %7, align 4
  ret void
}

; Function Attrs: mustprogress nounwind uwtable
define linkonce_odr dso_local noundef nonnull align 8 dereferenceable(16) ptr @_ZN13V3GraphVertex5linksEv(ptr noundef nonnull align 8 dereferenceable(80) %0) #5 comdat align 2 {
  %2 = alloca ptr, align 8
  store ptr %0, ptr %2, align 8
  %3 = load ptr, ptr %2, align 8
  %4 = getelementptr inbounds %class.V3GraphVertex, ptr %3, i32 0, i32 1
  ret ptr %4
}

; Function Attrs: mustprogress uwtable
define linkonce_odr dso_local ptr @_ZN6V3ListI13V3GraphVertexXadL_ZNS0_5linksEvEES0_E3endEv(ptr noundef nonnull align 8 dereferenceable(16) %0) #4 comdat align 2 {
  %2 = alloca ptr, align 8
  %3 = alloca ptr, align 8
  %4 = alloca %"class.V3List<V3GraphVertex, &V3GraphVertex::links>::SimpleItertatorImpl", align 8
  %5 = alloca ptr, align 8
  store ptr %0, ptr %5, align 8
  store ptr %4, ptr %2, align 8
  store ptr null, ptr %3, align 8
  %6 = load ptr, ptr %2, align 8
  %7 = load ptr, ptr %3, align 8
  store ptr %7, ptr %6, align 8
  %8 = getelementptr inbounds %"class.V3List<V3GraphVertex, &V3GraphVertex::links>::SimpleItertatorImpl", ptr %4, i32 0, i32 0
  %9 = load ptr, ptr %8, align 8
  ret ptr %9
}

; Function Attrs: mustprogress uwtable
define linkonce_odr dso_local ptr @_ZN6V3ListI13V3GraphVertexXadL_ZNS0_5linksEvEES0_E5beginEv(ptr noundef nonnull align 8 dereferenceable(16) %0) #4 comdat align 2 {
  %2 = alloca ptr, align 8
  %3 = alloca ptr, align 8
  %4 = alloca %"class.V3List<V3GraphVertex, &V3GraphVertex::links>::SimpleItertatorImpl", align 8
  %5 = alloca ptr, align 8
  store ptr %0, ptr %5, align 8
  %6 = load ptr, ptr %5, align 8
  %7 = getelementptr inbounds %class.V3List, ptr %6, i32 0, i32 0
  %8 = load ptr, ptr %7, align 8
  store ptr %4, ptr %2, align 8
  store ptr %8, ptr %3, align 8
  %9 = load ptr, ptr %2, align 8
  %10 = load ptr, ptr %3, align 8
  store ptr %10, ptr %9, align 8
  %11 = getelementptr inbounds %"class.V3List<V3GraphVertex, &V3GraphVertex::links>::SimpleItertatorImpl", ptr %4, i32 0, i32 0
  %12 = load ptr, ptr %11, align 8
  ret ptr %12
}

; Function Attrs: mustprogress nounwind uwtable
define linkonce_odr dso_local noundef nonnull align 8 dereferenceable(16) ptr @_ZN7V3Graph8verticesEv(ptr noundef nonnull align 8 dereferenceable(24) %0) #5 comdat align 2 {
  %2 = alloca ptr, align 8
  store ptr %0, ptr %2, align 8
  %3 = load ptr, ptr %2, align 8
  %4 = getelementptr inbounds %class.V3Graph, ptr %3, i32 0, i32 1
  ret ptr %4
}

; Function Attrs: mustprogress uwtable
define linkonce_odr dso_local void @_ZN12GraphAlgRank4mainEv(ptr noundef nonnull align 8 dereferenceable(16) %0) #4 comdat align 2 {
  %2 = alloca ptr, align 8
  %3 = alloca ptr, align 8
  %4 = alloca ptr, align 8
  %5 = alloca ptr, align 8
  %6 = alloca ptr, align 8
  %7 = alloca ptr, align 8
  %8 = alloca ptr, align 8
  %9 = alloca ptr, align 8
  %10 = alloca ptr, align 8
  %11 = alloca ptr, align 8
  %12 = alloca ptr, align 8
  %13 = alloca ptr, align 8
  %14 = alloca ptr, align 8
  %15 = alloca ptr, align 8
  %16 = alloca ptr, align 8
  %17 = alloca ptr, align 8
  %18 = alloca ptr, align 8
  %19 = alloca ptr, align 8
  %20 = alloca ptr, align 8
  %21 = alloca ptr, align 8
  %22 = alloca ptr, align 8
  %23 = alloca ptr, align 8
  %24 = alloca %"class.V3List<V3GraphVertex, &V3GraphVertex::links>::SimpleItertatorImpl", align 8
  %25 = alloca %"class.V3List<V3GraphVertex, &V3GraphVertex::links>::SimpleItertatorImpl", align 8
  %26 = alloca ptr, align 8
  %27 = alloca ptr, align 8
  %28 = alloca %"class.V3List<V3GraphVertex, &V3GraphVertex::links>::SimpleItertatorImpl", align 8
  %29 = alloca %"class.V3List<V3GraphVertex, &V3GraphVertex::links>::SimpleItertatorImpl", align 8
  %30 = alloca ptr, align 8
  store ptr %0, ptr %22, align 8
  %31 = load ptr, ptr %22, align 8
  %32 = getelementptr inbounds %class.GraphAlg, ptr %31, i32 0, i32 0
  %33 = load ptr, ptr %32, align 8
  %34 = call noundef nonnull align 8 dereferenceable(16) ptr @_ZN7V3Graph8verticesEv(ptr noundef nonnull align 8 dereferenceable(24) %33)
  store ptr %34, ptr %23, align 8
  %35 = load ptr, ptr %23, align 8
  %36 = call ptr @_ZN6V3ListI13V3GraphVertexXadL_ZNS0_5linksEvEES0_E5beginEv(ptr noundef nonnull align 8 dereferenceable(16) %35)
  %37 = getelementptr inbounds %"class.V3List<V3GraphVertex, &V3GraphVertex::links>::SimpleItertatorImpl", ptr %24, i32 0, i32 0
  store ptr %36, ptr %37, align 8
  %38 = load ptr, ptr %23, align 8
  %39 = call ptr @_ZN6V3ListI13V3GraphVertexXadL_ZNS0_5linksEvEES0_E3endEv(ptr noundef nonnull align 8 dereferenceable(16) %38)
  %40 = getelementptr inbounds %"class.V3List<V3GraphVertex, &V3GraphVertex::links>::SimpleItertatorImpl", ptr %25, i32 0, i32 0
  store ptr %39, ptr %40, align 8
  br label %41

41:                                               ; preds = %66, %1
  store ptr %24, ptr %18, align 8
  store ptr %25, ptr %19, align 8
  %42 = load ptr, ptr %18, align 8
  %43 = load ptr, ptr %42, align 8
  %44 = load ptr, ptr %19, align 8
  %45 = load ptr, ptr %44, align 8
  %46 = icmp ne ptr %43, %45
  br i1 %46, label %47, label %73

47:                                               ; preds = %41
  store ptr %24, ptr %16, align 8
  %48 = load ptr, ptr %16, align 8
  %49 = load ptr, ptr %48, align 8
  store ptr %49, ptr %11, align 8
  %50 = load ptr, ptr %11, align 8
  store ptr %50, ptr %8, align 8
  %51 = load ptr, ptr %8, align 8
  %52 = call noundef nonnull align 8 dereferenceable(16) ptr @_ZN13V3GraphVertex5linksEv(ptr noundef nonnull align 8 dereferenceable(80) %51)
  %53 = load ptr, ptr %52, align 8
  %54 = load ptr, ptr %48, align 8
  store ptr %53, ptr %4, align 8
  store ptr %54, ptr %5, align 8
  %55 = load ptr, ptr %4, align 8
  %56 = icmp ne ptr %55, null
  br i1 %56, label %57, label %59

57:                                               ; preds = %47
  %58 = load ptr, ptr %4, align 8
  br label %61

59:                                               ; preds = %47
  %60 = load ptr, ptr %5, align 8
  br label %61

61:                                               ; preds = %59, %57
  %62 = phi ptr [ %58, %57 ], [ %60, %59 ]
  call void @llvm.prefetch.p0(ptr %62, i32 1, i32 3, i32 1)
  %63 = load ptr, ptr %48, align 8
  store ptr %63, ptr %26, align 8
  %64 = load ptr, ptr %26, align 8
  call void @_ZN13V3GraphVertex4rankEj(ptr noundef nonnull align 8 dereferenceable(80) %64, i32 noundef 0)
  %65 = load ptr, ptr %26, align 8
  call void @_ZN13V3GraphVertex4userEj(ptr noundef nonnull align 8 dereferenceable(80) %65, i32 noundef 0)
  br label %66

66:                                               ; preds = %61
  store ptr %24, ptr %14, align 8
  %67 = load ptr, ptr %14, align 8
  %68 = load ptr, ptr %67, align 8
  store ptr %68, ptr %13, align 8
  %69 = load ptr, ptr %13, align 8
  store ptr %69, ptr %6, align 8
  %70 = load ptr, ptr %6, align 8
  %71 = call noundef nonnull align 8 dereferenceable(16) ptr @_ZN13V3GraphVertex5linksEv(ptr noundef nonnull align 8 dereferenceable(80) %70)
  %72 = load ptr, ptr %71, align 8
  store ptr %72, ptr %67, align 8
  br label %41

73:                                               ; preds = %41
  %74 = getelementptr inbounds %class.GraphAlg, ptr %31, i32 0, i32 0
  %75 = load ptr, ptr %74, align 8
  %76 = call noundef nonnull align 8 dereferenceable(16) ptr @_ZN7V3Graph8verticesEv(ptr noundef nonnull align 8 dereferenceable(24) %75)
  store ptr %76, ptr %27, align 8
  %77 = load ptr, ptr %27, align 8
  %78 = call ptr @_ZN6V3ListI13V3GraphVertexXadL_ZNS0_5linksEvEES0_E5beginEv(ptr noundef nonnull align 8 dereferenceable(16) %77)
  %79 = getelementptr inbounds %"class.V3List<V3GraphVertex, &V3GraphVertex::links>::SimpleItertatorImpl", ptr %28, i32 0, i32 0
  store ptr %78, ptr %79, align 8
  %80 = load ptr, ptr %27, align 8
  %81 = call ptr @_ZN6V3ListI13V3GraphVertexXadL_ZNS0_5linksEvEES0_E3endEv(ptr noundef nonnull align 8 dereferenceable(16) %80)
  %82 = getelementptr inbounds %"class.V3List<V3GraphVertex, &V3GraphVertex::links>::SimpleItertatorImpl", ptr %29, i32 0, i32 0
  store ptr %81, ptr %82, align 8
  br label %83

83:                                               ; preds = %112, %73
  store ptr %28, ptr %20, align 8
  store ptr %29, ptr %21, align 8
  %84 = load ptr, ptr %20, align 8
  %85 = load ptr, ptr %84, align 8
  %86 = load ptr, ptr %21, align 8
  %87 = load ptr, ptr %86, align 8
  %88 = icmp ne ptr %85, %87
  br i1 %88, label %89, label %119

89:                                               ; preds = %83
  store ptr %28, ptr %17, align 8
  %90 = load ptr, ptr %17, align 8
  %91 = load ptr, ptr %90, align 8
  store ptr %91, ptr %10, align 8
  %92 = load ptr, ptr %10, align 8
  store ptr %92, ptr %9, align 8
  %93 = load ptr, ptr %9, align 8
  %94 = call noundef nonnull align 8 dereferenceable(16) ptr @_ZN13V3GraphVertex5linksEv(ptr noundef nonnull align 8 dereferenceable(80) %93)
  %95 = load ptr, ptr %94, align 8
  %96 = load ptr, ptr %90, align 8
  store ptr %95, ptr %2, align 8
  store ptr %96, ptr %3, align 8
  %97 = load ptr, ptr %2, align 8
  %98 = icmp ne ptr %97, null
  br i1 %98, label %99, label %101

99:                                               ; preds = %89
  %100 = load ptr, ptr %2, align 8
  br label %103

101:                                              ; preds = %89
  %102 = load ptr, ptr %3, align 8
  br label %103

103:                                              ; preds = %101, %99
  %104 = phi ptr [ %100, %99 ], [ %102, %101 ]
  call void @llvm.prefetch.p0(ptr %104, i32 1, i32 3, i32 1)
  %105 = load ptr, ptr %90, align 8
  store ptr %105, ptr %30, align 8
  %106 = load ptr, ptr %30, align 8
  %107 = call noundef i32 @_ZNK13V3GraphVertex4userEv(ptr noundef nonnull align 8 dereferenceable(80) %106)
  %108 = icmp ne i32 %107, 0
  br i1 %108, label %111, label %109

109:                                              ; preds = %103
  %110 = load ptr, ptr %30, align 8
  call void @_ZN12GraphAlgRank13vertexIterateEP13V3GraphVertexj(ptr noundef nonnull align 8 dereferenceable(16) %31, ptr noundef %110, i32 noundef 1)
  br label %111

111:                                              ; preds = %109, %103
  br label %112

112:                                              ; preds = %111
  store ptr %28, ptr %15, align 8
  %113 = load ptr, ptr %15, align 8
  %114 = load ptr, ptr %113, align 8
  store ptr %114, ptr %12, align 8
  %115 = load ptr, ptr %12, align 8
  store ptr %115, ptr %7, align 8
  %116 = load ptr, ptr %7, align 8
  %117 = call noundef nonnull align 8 dereferenceable(16) ptr @_ZN13V3GraphVertex5linksEv(ptr noundef nonnull align 8 dereferenceable(80) %116)
  %118 = load ptr, ptr %117, align 8
  store ptr %118, ptr %113, align 8
  br label %83

119:                                              ; preds = %83
  ret void
}

; Function Attrs: mustprogress nounwind uwtable
define linkonce_odr dso_local void @_ZN8GraphAlgI7V3GraphEC2EPS0_PFbPK11V3GraphEdgeE(ptr noundef nonnull align 8 dereferenceable(16) %0, ptr noundef %1, ptr noundef %2) unnamed_addr #5 comdat align 2 {
  %4 = alloca ptr, align 8
  %5 = alloca ptr, align 8
  %6 = alloca ptr, align 8
  store ptr %0, ptr %4, align 8
  store ptr %1, ptr %5, align 8
  store ptr %2, ptr %6, align 8
  %7 = load ptr, ptr %4, align 8
  %8 = getelementptr inbounds %class.GraphAlg, ptr %7, i32 0, i32 0
  %9 = load ptr, ptr %5, align 8
  store ptr %9, ptr %8, align 8
  %10 = getelementptr inbounds %class.GraphAlg, ptr %7, i32 0, i32 1
  %11 = load ptr, ptr %6, align 8
  store ptr %11, ptr %10, align 8
  ret void
}

; Function Attrs: mustprogress uwtable
define linkonce_odr dso_local void @_ZN12GraphAlgRankC2EP7V3GraphPFbPK11V3GraphEdgeE(ptr noundef nonnull align 8 dereferenceable(16) %0, ptr noundef %1, ptr noundef %2) unnamed_addr #4 comdat align 2 {
  %4 = alloca ptr, align 8
  %5 = alloca ptr, align 8
  %6 = alloca ptr, align 8
  store ptr %0, ptr %4, align 8
  store ptr %1, ptr %5, align 8
  store ptr %2, ptr %6, align 8
  %7 = load ptr, ptr %4, align 8
  %8 = load ptr, ptr %5, align 8
  %9 = load ptr, ptr %6, align 8
  call void @_ZN8GraphAlgI7V3GraphEC2EPS0_PFbPK11V3GraphEdgeE(ptr noundef nonnull align 8 dereferenceable(16) %7, ptr noundef %8, ptr noundef %9)
  call void @_ZN12GraphAlgRank4mainEv(ptr noundef nonnull align 8 dereferenceable(16) %7)
  ret void
}

; Function Attrs: mustprogress uwtable
define dso_local void @_ZN7V3Graph4rankEPFbPK11V3GraphEdgeE(ptr noundef nonnull align 8 dereferenceable(24) %0, ptr noundef %1) #4 align 2 {
  %3 = alloca ptr, align 8
  %4 = alloca ptr, align 8
  %5 = alloca %class.GraphAlgRank, align 8
  store ptr %0, ptr %3, align 8
  store ptr %1, ptr %4, align 8
  %6 = load ptr, ptr %3, align 8
  %7 = load ptr, ptr %4, align 8
  call void @_ZN12GraphAlgRankC2EP7V3GraphPFbPK11V3GraphEdgeE(ptr noundef nonnull align 8 dereferenceable(16) %5, ptr noundef %6, ptr noundef %7)
  ret void
}