; Function Attrs: mustprogress uwtable
define dso_local void @_ZN7V3Graph4rankEPFbPK11V3GraphEdgeE(ptr noundef nonnull align 8 dereferenceable(24) %0, ptr noundef %1) #3 align 2 {
  %3 = alloca %class.GraphAlgRank, align 8
  store ptr %0, ptr %3, align 8
  %4 = getelementptr inbounds i8, ptr %3, i64 8
  store ptr %1, ptr %4, align 8
  %5 = getelementptr inbounds i8, ptr %0, i64 8
  %6 = load ptr, ptr %5, align 8
  %.not46.i.i = icmp eq ptr %6, null
  br i1 %.not46.i.i, label %_ZN12GraphAlgRankC2EP7V3GraphPFbPK11V3GraphEdgeE.exit, label %.lr.ph.i.i

.lr.ph.i.i:                                       ; preds = %2, %.lr.ph.i.i
  %.sroa.0.047.i.i = phi ptr [ %8, %.lr.ph.i.i ], [ %6, %2 ]
  %7 = getelementptr inbounds i8, ptr %.sroa.0.047.i.i, i64 8
  %8 = load ptr, ptr %7, align 8
  %.not45.i.i = icmp eq ptr %8, null
  %9 = select i1 %.not45.i.i, ptr %.sroa.0.047.i.i, ptr %8
  tail call void @llvm.prefetch.p0(ptr nonnull %9, i32 1, i32 3, i32 1)
  %10 = getelementptr inbounds i8, ptr %.sroa.0.047.i.i, i64 68
  store i32 0, ptr %10, align 4
  %11 = getelementptr inbounds i8, ptr %.sroa.0.047.i.i, i64 72
  store i32 0, ptr %11, align 8
  br i1 %.not45.i.i, label %._crit_edge.i.i, label %.lr.ph.i.i

._crit_edge.i.i:                                  ; preds = %.lr.ph.i.i
  %.sroa.036.048.pre.i.i = load ptr, ptr %5, align 8
  %.not4249.i.i = icmp eq ptr %.sroa.036.048.pre.i.i, null
  br i1 %.not4249.i.i, label %_ZN12GraphAlgRankC2EP7V3GraphPFbPK11V3GraphEdgeE.exit, label %.lr.ph52.i.i

.lr.ph52.i.i:                                     ; preds = %._crit_edge.i.i, %18
  %.sroa.036.050.i.i = phi ptr [ %.sroa.036.0.i.i, %18 ], [ %.sroa.036.048.pre.i.i, %._crit_edge.i.i ]
  %12 = getelementptr inbounds i8, ptr %.sroa.036.050.i.i, i64 8
  %13 = load ptr, ptr %12, align 8
  %.not43.i.i = icmp eq ptr %13, null
  %14 = select i1 %.not43.i.i, ptr %.sroa.036.050.i.i, ptr %13
  call void @llvm.prefetch.p0(ptr nonnull %14, i32 1, i32 3, i32 1)
  %15 = getelementptr inbounds i8, ptr %.sroa.036.050.i.i, i64 72
  %16 = load i32, ptr %15, align 8
  %.not44.i.i = icmp eq i32 %16, 0
  br i1 %.not44.i.i, label %17, label %18

17:                                               ; preds = %.lr.ph52.i.i
  call void @_ZN12GraphAlgRank13vertexIterateEP13V3GraphVertexj(ptr noundef nonnull align 8 dereferenceable(16) %3, ptr noundef nonnull %.sroa.036.050.i.i, i32 noundef 1)
  %.sroa.036.0.pre.i.i = load ptr, ptr %12, align 8
  br label %18

18:                                               ; preds = %17, %.lr.ph52.i.i
  %.sroa.036.0.i.i = phi ptr [ %13, %.lr.ph52.i.i ], [ %.sroa.036.0.pre.i.i, %17 ]
  %.not42.i.i = icmp eq ptr %.sroa.036.0.i.i, null
  br i1 %.not42.i.i, label %_ZN12GraphAlgRankC2EP7V3GraphPFbPK11V3GraphEdgeE.exit, label %.lr.ph52.i.i

_ZN12GraphAlgRankC2EP7V3GraphPFbPK11V3GraphEdgeE.exit: ; preds = %18, %2, %._crit_edge.i.i
  ret void
}